target datalayout = "e-m:e-p270:32:32-p271:32:32-p272:64:64-i64:64-i128:128-f80:128-n8:16:32:64-S128"
target triple = "x86_64-pc-linux-gnu"

%"class.std::__cxx11::basic_string" = type { %"struct.std::__cxx11::basic_string<char>::_Alloc_hider", i64, %union.anon }
%"struct.std::__cxx11::basic_string<char>::_Alloc_hider" = type { ptr }
%union.anon = type { i64, [8 x i8] }
%"class.std::__cxx11::basic_stringstream" = type { %"class.std::basic_iostream.base", %"class.std::__cxx11::basic_stringbuf", %"class.std::basic_ios" }
%"class.std::basic_iostream.base" = type { %"class.std::basic_istream.base", %"class.std::basic_ostream.base" }
%"class.std::basic_istream.base" = type { ptr, i64 }
%"class.std::basic_ostream.base" = type { ptr }
%"class.std::__cxx11::basic_stringbuf" = type { %"class.std::basic_streambuf", i32, %"class.std::__cxx11::basic_string" }
%"class.std::basic_streambuf" = type { ptr, ptr, ptr, ptr, ptr, ptr, ptr, %"class.std::locale" }
%"class.std::locale" = type { ptr }
%"class.std::basic_ios" = type { %"class.std::ios_base", ptr, i8, i8, ptr, ptr, ptr, ptr }
%"class.std::ios_base" = type { ptr, i64, i64, i32, i32, i32, ptr, %"struct.std::ios_base::_Words", [8 x %"struct.std::ios_base::_Words"], i32, ptr, %"class.std::locale" }
%"struct.std::ios_base::_Words" = type { ptr, i64 }
%"struct.std::_Setw" = type { i32 }
%struct.nodeCardsType = type { i8, i8, i8, i8, [4 x i8] }

@cardRank = external global [16 x i8], align 16
@cardSuit = external global [5 x i8], align 1
@.str.4 = private unnamed_addr constant [2 x i8] c"\0A\00", align 1
@.str.8 = private unnamed_addr constant [8 x i8] c"Address\00", align 1
@.str.9 = private unnamed_addr constant [7 x i8] c"Bounds\00", align 1
@.str.10 = private unnamed_addr constant [5 x i8] c" to \00", align 1
@.str.11 = private unnamed_addr constant [9 x i8] c" tricks\0A\00", align 1
@.str.12 = private unnamed_addr constant [10 x i8] c"Best move\00", align 1

; Function Attrs: mustprogress nounwind uwtable
define linkonce_odr i32 @_ZSt4setwi(i32 noundef %0) #5 comdat {
  %2 = alloca %"struct.std::_Setw", align 4
  %3 = alloca i32, align 4
  store i32 %0, ptr %3, align 4
  %4 = getelementptr inbounds nuw %"struct.std::_Setw", ptr %2, i32 0, i32 0
  %5 = load i32, ptr %3, align 4
  store i32 %5, ptr %4, align 4
  %6 = getelementptr inbounds nuw %"struct.std::_Setw", ptr %2, i32 0, i32 0
  %7 = load i32, ptr %6, align 4
  ret i32 %7
}

; Function Attrs: mustprogress uwtable
define void @_Z10NodeToTextB5cxx11RK13nodeCardsType(ptr dead_on_unwind noalias writable sret(%"class.std::__cxx11::basic_string") align 8 %0, ptr noundef nonnull align 1 dereferenceable(8) %1) #4 personality ptr @__gxx_personality_v0 {
  %3 = alloca ptr, align 8
  %4 = alloca ptr, align 8
  %5 = alloca %"class.std::__cxx11::basic_stringstream", align 8
  %6 = alloca %"struct.std::_Setw", align 4
  %7 = alloca ptr, align 8
  %8 = alloca i32, align 4
  %9 = alloca %"struct.std::_Setw", align 4
  %10 = alloca %"struct.std::_Setw", align 4
  store ptr %0, ptr %3, align 8
  store ptr %1, ptr %4, align 8
  call void @_ZNSt7__cxx1118basic_stringstreamIcSt11char_traitsIcESaIcEEC1Ev(ptr noundef nonnull align 8 dereferenceable(128) %5)
  %11 = getelementptr inbounds i8, ptr %5, i64 16
  %12 = invoke i32 @_ZSt4setwi(i32 noundef 16)
          to label %13 unwind label %89

13:                                               ; preds = %2
  %14 = getelementptr inbounds nuw %"struct.std::_Setw", ptr %6, i32 0, i32 0
  store i32 %12, ptr %14, align 4
  %15 = getelementptr inbounds nuw %"struct.std::_Setw", ptr %6, i32 0, i32 0
  %16 = load i32, ptr %15, align 4
  %17 = invoke noundef nonnull align 8 dereferenceable(8) ptr @_ZStlsIcSt11char_traitsIcEERSt13basic_ostreamIT_T0_ES6_St5_Setw(ptr noundef nonnull align 8 dereferenceable(8) %11, i32 %16)
          to label %18 unwind label %89

18:                                               ; preds = %13
  %19 = invoke noundef nonnull align 8 dereferenceable(8) ptr @_ZNSolsEPFRSt8ios_baseS0_E(ptr noundef nonnull align 8 dereferenceable(8) %17, ptr noundef @_ZSt4leftRSt8ios_base)
          to label %20 unwind label %89

20:                                               ; preds = %18
  %21 = invoke noundef nonnull align 8 dereferenceable(8) ptr @_ZStlsISt11char_traitsIcEERSt13basic_ostreamIcT_ES5_PKc(ptr noundef nonnull align 8 dereferenceable(8) %19, ptr noundef @.str.8)
          to label %22 unwind label %89

22:                                               ; preds = %20
  %23 = load ptr, ptr %4, align 8
  %24 = invoke noundef nonnull align 8 dereferenceable(8) ptr @_ZNSolsEPKv(ptr noundef nonnull align 8 dereferenceable(8) %21, ptr noundef %23)
          to label %25 unwind label %89

25:                                               ; preds = %22
  %26 = invoke noundef nonnull align 8 dereferenceable(8) ptr @_ZStlsISt11char_traitsIcEERSt13basic_ostreamIcT_ES5_PKc(ptr noundef nonnull align 8 dereferenceable(8) %24, ptr noundef @.str.4)
          to label %27 unwind label %89

27:                                               ; preds = %25
  %28 = getelementptr inbounds i8, ptr %5, i64 16
  %29 = invoke i32 @_ZSt4setwi(i32 noundef 16)
          to label %30 unwind label %89

30:                                               ; preds = %27
  %31 = getelementptr inbounds nuw %"struct.std::_Setw", ptr %9, i32 0, i32 0
  store i32 %29, ptr %31, align 4
  %32 = getelementptr inbounds nuw %"struct.std::_Setw", ptr %9, i32 0, i32 0
  %33 = load i32, ptr %32, align 4
  %34 = invoke noundef nonnull align 8 dereferenceable(8) ptr @_ZStlsIcSt11char_traitsIcEERSt13basic_ostreamIT_T0_ES6_St5_Setw(ptr noundef nonnull align 8 dereferenceable(8) %28, i32 %33)
          to label %35 unwind label %89

35:                                               ; preds = %30
  %36 = invoke noundef nonnull align 8 dereferenceable(8) ptr @_ZNSolsEPFRSt8ios_baseS0_E(ptr noundef nonnull align 8 dereferenceable(8) %34, ptr noundef @_ZSt4leftRSt8ios_base)
          to label %37 unwind label %89

37:                                               ; preds = %35
  %38 = invoke noundef nonnull align 8 dereferenceable(8) ptr @_ZStlsISt11char_traitsIcEERSt13basic_ostreamIcT_ES5_PKc(ptr noundef nonnull align 8 dereferenceable(8) %36, ptr noundef @.str.9)
          to label %39 unwind label %89

39:                                               ; preds = %37
  %40 = load ptr, ptr %4, align 8
  %41 = getelementptr inbounds nuw %struct.nodeCardsType, ptr %40, i32 0, i32 1
  %42 = load i8, ptr %41, align 1
  %43 = sext i8 %42 to i32
  %44 = invoke noundef nonnull align 8 dereferenceable(8) ptr @_ZNSolsEi(ptr noundef nonnull align 8 dereferenceable(8) %38, i32 noundef %43)
          to label %45 unwind label %89

45:                                               ; preds = %39
  %46 = invoke noundef nonnull align 8 dereferenceable(8) ptr @_ZStlsISt11char_traitsIcEERSt13basic_ostreamIcT_ES5_PKc(ptr noundef nonnull align 8 dereferenceable(8) %44, ptr noundef @.str.10)
          to label %47 unwind label %89

47:                                               ; preds = %45
  %48 = load ptr, ptr %4, align 8
  %49 = getelementptr inbounds nuw %struct.nodeCardsType, ptr %48, i32 0, i32 0
  %50 = load i8, ptr %49, align 1
  %51 = sext i8 %50 to i32
  %52 = invoke noundef nonnull align 8 dereferenceable(8) ptr @_ZNSolsEi(ptr noundef nonnull align 8 dereferenceable(8) %46, i32 noundef %51)
          to label %53 unwind label %89

53:                                               ; preds = %47
  %54 = invoke noundef nonnull align 8 dereferenceable(8) ptr @_ZStlsISt11char_traitsIcEERSt13basic_ostreamIcT_ES5_PKc(ptr noundef nonnull align 8 dereferenceable(8) %52, ptr noundef @.str.11)
          to label %55 unwind label %89

55:                                               ; preds = %53
  %56 = getelementptr inbounds i8, ptr %5, i64 16
  %57 = invoke i32 @_ZSt4setwi(i32 noundef 16)
          to label %58 unwind label %89

58:                                               ; preds = %55
  %59 = getelementptr inbounds nuw %"struct.std::_Setw", ptr %10, i32 0, i32 0
  store i32 %57, ptr %59, align 4
  %60 = getelementptr inbounds nuw %"struct.std::_Setw", ptr %10, i32 0, i32 0
  %61 = load i32, ptr %60, align 4
  %62 = invoke noundef nonnull align 8 dereferenceable(8) ptr @_ZStlsIcSt11char_traitsIcEERSt13basic_ostreamIT_T0_ES6_St5_Setw(ptr noundef nonnull align 8 dereferenceable(8) %56, i32 %61)
          to label %63 unwind label %89

63:                                               ; preds = %58
  %64 = invoke noundef nonnull align 8 dereferenceable(8) ptr @_ZNSolsEPFRSt8ios_baseS0_E(ptr noundef nonnull align 8 dereferenceable(8) %62, ptr noundef @_ZSt4leftRSt8ios_base)
          to label %65 unwind label %89

65:                                               ; preds = %63
  %66 = invoke noundef nonnull align 8 dereferenceable(8) ptr @_ZStlsISt11char_traitsIcEERSt13basic_ostreamIcT_ES5_PKc(ptr noundef nonnull align 8 dereferenceable(8) %64, ptr noundef @.str.12)
          to label %67 unwind label %89

67:                                               ; preds = %65
  %68 = load ptr, ptr %4, align 8
  %69 = getelementptr inbounds nuw %struct.nodeCardsType, ptr %68, i32 0, i32 2
  %70 = load i8, ptr %69, align 1
  %71 = sext i8 %70 to i32
  %72 = sext i32 %71 to i64
  %73 = getelementptr inbounds [5 x i8], ptr @cardSuit, i64 0, i64 %72
  %74 = load i8, ptr %73, align 1
  %75 = invoke noundef nonnull align 8 dereferenceable(8) ptr @_ZStlsISt11char_traitsIcEERSt13basic_ostreamIcT_ES5_h(ptr noundef nonnull align 8 dereferenceable(8) %66, i8 noundef zeroext %74)
          to label %76 unwind label %89

76:                                               ; preds = %67
  %77 = load ptr, ptr %4, align 8
  %78 = getelementptr inbounds nuw %struct.nodeCardsType, ptr %77, i32 0, i32 3
  %79 = load i8, ptr %78, align 1
  %80 = sext i8 %79 to i32
  %81 = sext i32 %80 to i64
  %82 = getelementptr inbounds [16 x i8], ptr @cardRank, i64 0, i64 %81
  %83 = load i8, ptr %82, align 1
  %84 = invoke noundef nonnull align 8 dereferenceable(8) ptr @_ZStlsISt11char_traitsIcEERSt13basic_ostreamIcT_ES5_h(ptr noundef nonnull align 8 dereferenceable(8) %75, i8 noundef zeroext %83)
          to label %85 unwind label %89

85:                                               ; preds = %76
  %86 = invoke noundef nonnull align 8 dereferenceable(8) ptr @_ZStlsISt11char_traitsIcEERSt13basic_ostreamIcT_ES5_PKc(ptr noundef nonnull align 8 dereferenceable(8) %84, ptr noundef @.str.4)
          to label %87 unwind label %89

87:                                               ; preds = %85
  invoke void @_ZNKSt7__cxx1118basic_stringstreamIcSt11char_traitsIcESaIcEE3strEv(ptr dead_on_unwind writable sret(%"class.std::__cxx11::basic_string") align 8 %0, ptr noundef nonnull align 8 dereferenceable(128) %5)
          to label %88 unwind label %89

88:                                               ; preds = %87
  call void @_ZNSt7__cxx1118basic_stringstreamIcSt11char_traitsIcESaIcEED1Ev(ptr noundef nonnull align 8 dereferenceable(128) %5) #3
  ret void

89:                                               ; preds = %87, %85, %76, %67, %65, %63, %58, %55, %53, %47, %45, %39, %37, %35, %30, %27, %25, %22, %20, %18, %13, %2
  %90 = landingpad { ptr, i32 }
          cleanup
  %91 = extractvalue { ptr, i32 } %90, 0
  store ptr %91, ptr %7, align 8
  %92 = extractvalue { ptr, i32 } %90, 1
  store i32 %92, ptr %8, align 4
  call void @_ZNSt7__cxx1118basic_stringstreamIcSt11char_traitsIcESaIcEED1Ev(ptr noundef nonnull align 8 dereferenceable(128) %5) #3
  br label %93

93:                                               ; preds = %89
  %94 = load ptr, ptr %7, align 8
  %95 = load i32, ptr %8, align 4
  %96 = insertvalue { ptr, i32 } poison, ptr %94, 0
  %97 = insertvalue { ptr, i32 } %96, i32 %95, 1
  resume { ptr, i32 } %97
}